target datalayout = "e-m:e-p270:32:32-p271:32:32-p272:64:64-i64:64-i128:128-f80:128-n8:16:32:64-S128"
target triple = "x86_64-pc-linux-gnu"

%"class.pxrInternal_v0_24__pxrReserved__::HdDataSourceLocatorSet" = type { %"class.pxrInternal_v0_24__pxrReserved__::TfSmallVector" }
%"class.pxrInternal_v0_24__pxrReserved__::TfSmallVector" = type { %"union.pxrInternal_v0_24__pxrReserved__::TfSmallVectorBase::_DataUnion", i32, i32 }
%"union.pxrInternal_v0_24__pxrReserved__::TfSmallVectorBase::_DataUnion" = type { ptr, [440 x i8] }
%"class.pxrInternal_v0_24__pxrReserved__::HdDataSourceLocator" = type { %"class.pxrInternal_v0_24__pxrReserved__::TfSmallVector.0" }
%"class.pxrInternal_v0_24__pxrReserved__::TfSmallVector.0" = type { %"union.pxrInternal_v0_24__pxrReserved__::TfSmallVectorBase::_DataUnion.1", i32, i32 }
%"union.pxrInternal_v0_24__pxrReserved__::TfSmallVectorBase::_DataUnion.1" = type { ptr, [40 x i8] }

; Function Attrs: mustprogress uwtable
define linkonce_odr noundef nonnull align 8 dereferenceable(456) ptr @_ZN32pxrInternal_v0_24__pxrReserved__13TfSmallVectorINS_19HdDataSourceLocatorELj8EEaSEOS2_(ptr noundef nonnull align 8 dereferenceable(456) %0, ptr noundef nonnull align 8 dereferenceable(456) %1) #0 comdat align 2 {
  %3 = alloca ptr, align 8
  %4 = alloca ptr, align 8
  store ptr %0, ptr %3, align 8
  store ptr %1, ptr %4, align 8
  %5 = load ptr, ptr %3, align 8
  %6 = load ptr, ptr %4, align 8
  %7 = icmp ne ptr %5, %6
  br i1 %7, label %8, label %10

8:                                                ; preds = %2
  %9 = load ptr, ptr %4, align 8
  call void @_ZN32pxrInternal_v0_24__pxrReserved__13TfSmallVectorINS_19HdDataSourceLocatorELj8EE4swapERS2_(ptr noundef nonnull align 8 dereferenceable(456) %5, ptr noundef nonnull align 8 dereferenceable(456) %9)
  br label %10

10:                                               ; preds = %8, %2
  ret ptr %5
}

; Function Attrs: mustprogress nounwind uwtable
define linkonce_odr void @_ZN32pxrInternal_v0_24__pxrReserved__13TfSmallVectorINS_19HdDataSourceLocatorELj8EEC2Ev(ptr noundef nonnull align 8 dereferenceable(456) %0) unnamed_addr #2 comdat align 2 {
  %2 = alloca ptr, align 8
  store ptr %0, ptr %2, align 8
  %3 = load ptr, ptr %2, align 8
  %4 = getelementptr inbounds nuw %"class.pxrInternal_v0_24__pxrReserved__::TfSmallVector", ptr %3, i32 0, i32 1
  store i32 0, ptr %4, align 8
  %5 = getelementptr inbounds nuw %"class.pxrInternal_v0_24__pxrReserved__::TfSmallVector", ptr %3, i32 0, i32 2
  store i32 8, ptr %5, align 4
  ret void
}

; Function Attrs: mustprogress uwtable
define linkonce_odr noundef nonnull align 8 dereferenceable(456) ptr @_ZN32pxrInternal_v0_24__pxrReserved__22HdDataSourceLocatorSetaSEOS0_(ptr noundef nonnull align 8 dereferenceable(456) %0, ptr noundef nonnull align 8 dereferenceable(456) %1) #0 comdat align 2 {
  %3 = alloca ptr, align 8
  %4 = alloca ptr, align 8
  store ptr %0, ptr %3, align 8
  store ptr %1, ptr %4, align 8
  %5 = load ptr, ptr %3, align 8
  %6 = getelementptr inbounds nuw %"class.pxrInternal_v0_24__pxrReserved__::HdDataSourceLocatorSet", ptr %5, i32 0, i32 0
  %7 = load ptr, ptr %4, align 8
  %8 = getelementptr inbounds nuw %"class.pxrInternal_v0_24__pxrReserved__::HdDataSourceLocatorSet", ptr %7, i32 0, i32 0
  %9 = call noundef nonnull align 8 dereferenceable(456) ptr @_ZN32pxrInternal_v0_24__pxrReserved__13TfSmallVectorINS_19HdDataSourceLocatorELj8EEaSEOS2_(ptr noundef nonnull align 8 dereferenceable(456) %6, ptr noundef nonnull align 8 dereferenceable(456) %8)
  ret ptr %5
}

; Function Attrs: mustprogress uwtable
define linkonce_odr void @_ZN32pxrInternal_v0_24__pxrReserved__22HdDataSourceLocatorSetC2Ev(ptr noundef nonnull align 8 dereferenceable(456) %0) unnamed_addr #0 comdat align 2 {
  %2 = alloca ptr, align 8
  store ptr %0, ptr %2, align 8
  %3 = load ptr, ptr %2, align 8
  %4 = getelementptr inbounds nuw %"class.pxrInternal_v0_24__pxrReserved__::HdDataSourceLocatorSet", ptr %3, i32 0, i32 0
  call void @_ZN32pxrInternal_v0_24__pxrReserved__13TfSmallVectorINS_19HdDataSourceLocatorELj8EEC2Ev(ptr noundef nonnull align 8 dereferenceable(456) %4)
  ret void
}

; Function Attrs: mustprogress uwtable
define void @_ZNK32pxrInternal_v0_24__pxrReserved__59UsdImagingFlattenedDirectMaterialBindingsDataSourceProvider34ComputeDirtyLocatorsForDescendantsEPNS_22HdDataSourceLocatorSetE(ptr noundef nonnull align 8 dereferenceable(8) %0, ptr noundef %1) unnamed_addr #0 align 2 personality ptr @__gxx_personality_v0 {
  %3 = alloca ptr, align 8
  %4 = alloca ptr, align 8
  %5 = alloca i8, align 1
  %6 = alloca ptr, align 8
  %7 = alloca ptr, align 8
  %8 = alloca ptr, align 8
  %9 = alloca ptr, align 8
  %10 = alloca %"class.pxrInternal_v0_24__pxrReserved__::HdDataSourceLocatorSet", align 8
  %11 = alloca ptr, align 8
  %12 = alloca ptr, align 8
  %13 = alloca ptr, align 8
  %14 = alloca i32, align 4
  %15 = alloca ptr, align 8
  %16 = alloca ptr, align 8
  %17 = alloca %"class.pxrInternal_v0_24__pxrReserved__::HdDataSourceLocator", align 8
  store ptr %0, ptr %3, align 8
  store ptr %1, ptr %4, align 8
  store i8 0, ptr %5, align 1
  %18 = load ptr, ptr %4, align 8
  store ptr %18, ptr %6, align 8
  %19 = load ptr, ptr %6, align 8
  %20 = call noundef ptr @_ZNK32pxrInternal_v0_24__pxrReserved__22HdDataSourceLocatorSet5beginEv(ptr noundef nonnull align 8 dereferenceable(456) %19)
  store ptr %20, ptr %7, align 8
  %21 = load ptr, ptr %6, align 8
  %22 = call noundef ptr @_ZNK32pxrInternal_v0_24__pxrReserved__22HdDataSourceLocatorSet3endEv(ptr noundef nonnull align 8 dereferenceable(456) %21)
  store ptr %22, ptr %8, align 8
  br label %23

23:                                               ; preds = %34, %2
  %24 = load ptr, ptr %7, align 8
  %25 = load ptr, ptr %8, align 8
  %26 = icmp ne ptr %24, %25
  br i1 %26, label %27, label %37

27:                                               ; preds = %23
  %28 = load ptr, ptr %7, align 8
  store ptr %28, ptr %9, align 8
  %29 = load ptr, ptr %9, align 8
  %30 = call noundef i64 @_ZNK32pxrInternal_v0_24__pxrReserved__19HdDataSourceLocator15GetElementCountEv(ptr noundef nonnull align 8 dereferenceable(56) %29)
  %31 = icmp ne i64 %30, 1
  br i1 %31, label %32, label %33

32:                                               ; preds = %27
  store i8 1, ptr %5, align 1
  br label %37

33:                                               ; preds = %27
  br label %34

34:                                               ; preds = %33
  %35 = load ptr, ptr %7, align 8
  %36 = getelementptr inbounds %"class.pxrInternal_v0_24__pxrReserved__::HdDataSourceLocator", ptr %35, i32 1
  store ptr %36, ptr %7, align 8
  br label %23

37:                                               ; preds = %32, %23
  %38 = load i8, ptr %5, align 1
  %39 = trunc i8 %38 to i1
  br i1 %39, label %41, label %40

40:                                               ; preds = %37
  br label %75

41:                                               ; preds = %37
  call void @_ZN32pxrInternal_v0_24__pxrReserved__22HdDataSourceLocatorSetC2Ev(ptr noundef nonnull align 8 dereferenceable(456) %10)
  %42 = load ptr, ptr %4, align 8
  store ptr %42, ptr %11, align 8
  %43 = load ptr, ptr %11, align 8
  %44 = invoke noundef ptr @_ZNK32pxrInternal_v0_24__pxrReserved__22HdDataSourceLocatorSet5beginEv(ptr noundef nonnull align 8 dereferenceable(456) %43)
          to label %45 unwind label %63

45:                                               ; preds = %41
  store ptr %44, ptr %12, align 8
  %46 = load ptr, ptr %11, align 8
  %47 = invoke noundef ptr @_ZNK32pxrInternal_v0_24__pxrReserved__22HdDataSourceLocatorSet3endEv(ptr noundef nonnull align 8 dereferenceable(456) %46)
          to label %48 unwind label %63

48:                                               ; preds = %45
  store ptr %47, ptr %15, align 8
  br label %49

49:                                               ; preds = %60, %48
  %50 = load ptr, ptr %12, align 8
  %51 = load ptr, ptr %15, align 8
  %52 = icmp ne ptr %50, %51
  br i1 %52, label %53, label %71

53:                                               ; preds = %49
  %54 = load ptr, ptr %12, align 8
  store ptr %54, ptr %16, align 8
  %55 = load ptr, ptr %16, align 8
  %56 = invoke noundef nonnull align 8 dereferenceable(8) ptr @_ZNK32pxrInternal_v0_24__pxrReserved__19HdDataSourceLocator15GetFirstElementEv(ptr noundef nonnull align 8 dereferenceable(56) %55)
          to label %57 unwind label %63

57:                                               ; preds = %53
  invoke void @_ZN32pxrInternal_v0_24__pxrReserved__19HdDataSourceLocatorC1ERKNS_7TfTokenE(ptr noundef nonnull align 8 dereferenceable(56) %17, ptr noundef nonnull align 8 dereferenceable(8) %56)
          to label %58 unwind label %63

58:                                               ; preds = %57
  invoke void @_ZN32pxrInternal_v0_24__pxrReserved__22HdDataSourceLocatorSet6insertERKNS_19HdDataSourceLocatorE(ptr noundef nonnull align 8 dereferenceable(456) %10, ptr noundef nonnull align 8 dereferenceable(56) %17)
          to label %59 unwind label %67

59:                                               ; preds = %58
  call void @_ZN32pxrInternal_v0_24__pxrReserved__19HdDataSourceLocatorD2Ev(ptr noundef nonnull align 8 dereferenceable(56) %17) #14
  br label %60

60:                                               ; preds = %59
  %61 = load ptr, ptr %12, align 8
  %62 = getelementptr inbounds %"class.pxrInternal_v0_24__pxrReserved__::HdDataSourceLocator", ptr %61, i32 1
  store ptr %62, ptr %12, align 8
  br label %49

63:                                               ; preds = %71, %57, %53, %45, %41
  %64 = landingpad { ptr, i32 }
          cleanup
  %65 = extractvalue { ptr, i32 } %64, 0
  store ptr %65, ptr %13, align 8
  %66 = extractvalue { ptr, i32 } %64, 1
  store i32 %66, ptr %14, align 4
  br label %76

67:                                               ; preds = %58
  %68 = landingpad { ptr, i32 }
          cleanup
  %69 = extractvalue { ptr, i32 } %68, 0
  store ptr %69, ptr %13, align 8
  %70 = extractvalue { ptr, i32 } %68, 1
  store i32 %70, ptr %14, align 4
  call void @_ZN32pxrInternal_v0_24__pxrReserved__19HdDataSourceLocatorD2Ev(ptr noundef nonnull align 8 dereferenceable(56) %17) #14
  br label %76

71:                                               ; preds = %49
  %72 = load ptr, ptr %4, align 8
  %73 = invoke noundef nonnull align 8 dereferenceable(456) ptr @_ZN32pxrInternal_v0_24__pxrReserved__22HdDataSourceLocatorSetaSEOS0_(ptr noundef nonnull align 8 dereferenceable(456) %72, ptr noundef nonnull align 8 dereferenceable(456) %10)
          to label %74 unwind label %63

74:                                               ; preds = %71
  call void @_ZN32pxrInternal_v0_24__pxrReserved__22HdDataSourceLocatorSetD2Ev(ptr noundef nonnull align 8 dereferenceable(456) %10) #14
  br label %75

75:                                               ; preds = %74, %40
  ret void

76:                                               ; preds = %67, %63
  call void @_ZN32pxrInternal_v0_24__pxrReserved__22HdDataSourceLocatorSetD2Ev(ptr noundef nonnull align 8 dereferenceable(456) %10) #14
  br label %77

77:                                               ; preds = %76
  %78 = load ptr, ptr %13, align 8
  %79 = load i32, ptr %14, align 4
  %80 = insertvalue { ptr, i32 } poison, ptr %78, 0
  %81 = insertvalue { ptr, i32 } %80, i32 %79, 1
  resume { ptr, i32 } %81
}