; Function Attrs: mustprogress uwtable
define void @_ZNK32pxrInternal_v0_24__pxrReserved__59UsdImagingFlattenedDirectMaterialBindingsDataSourceProvider34ComputeDirtyLocatorsForDescendantsEPNS_22HdDataSourceLocatorSetE(ptr nonnull readnone align 8 captures(none) %0, ptr noundef nonnull %1) unnamed_addr #0 align 2 personality ptr @__gxx_personality_v0 {
  %3 = alloca %"class.pxrInternal_v0_24__pxrReserved__::HdDataSourceLocatorSet", align 8
  %4 = alloca %"class.pxrInternal_v0_24__pxrReserved__::HdDataSourceLocator", align 8
  %5 = tail call noundef ptr @_ZNK32pxrInternal_v0_24__pxrReserved__22HdDataSourceLocatorSet5beginEv(ptr noundef nonnull align 8 dereferenceable(456) %1)
  %6 = tail call noundef ptr @_ZNK32pxrInternal_v0_24__pxrReserved__22HdDataSourceLocatorSet3endEv(ptr noundef nonnull align 8 dereferenceable(456) %1)
  %.not.not31 = icmp eq ptr %5, %6
  br i1 %.not.not31, label %.critedge, label %.lr.ph

7:                                                ; preds = %.lr.ph
  %8 = getelementptr inbounds nuw i8, ptr %.01932, i64 56
  %.not.not = icmp eq ptr %8, %6
  br i1 %.not.not, label %.critedge, label %.lr.ph

.lr.ph:                                           ; preds = %2, %7
  %.01932 = phi ptr [ %8, %7 ], [ %5, %2 ]
  %9 = tail call noundef i64 @_ZNK32pxrInternal_v0_24__pxrReserved__19HdDataSourceLocator15GetElementCountEv(ptr noundef nonnull align 8 dereferenceable(56) %.01932)
  %.not23 = icmp eq i64 %9, 1
  br i1 %.not23, label %7, label %10

10:                                               ; preds = %.lr.ph
  %11 = getelementptr inbounds nuw i8, ptr %3, i64 448
  store i32 0, ptr %11, align 8
  %12 = getelementptr inbounds nuw i8, ptr %3, i64 452
  store i32 8, ptr %12, align 4
  %13 = invoke noundef ptr @_ZNK32pxrInternal_v0_24__pxrReserved__22HdDataSourceLocatorSet5beginEv(ptr noundef nonnull align 8 dereferenceable(456) %1)
          to label %14 unwind label %.loopexit.split-lp

14:                                               ; preds = %10
  %15 = invoke noundef ptr @_ZNK32pxrInternal_v0_24__pxrReserved__22HdDataSourceLocatorSet3endEv(ptr noundef nonnull align 8 dereferenceable(456) %1)
          to label %.preheader unwind label %.loopexit.split-lp

.preheader:                                       ; preds = %14
  %.not33 = icmp eq ptr %13, %15
  br i1 %.not33, label %._crit_edge, label %.lr.ph35

.lr.ph35:                                         ; preds = %.preheader
  %16 = getelementptr inbounds nuw i8, ptr %4, i64 52
  %17 = getelementptr inbounds nuw i8, ptr %4, i64 48
  br label %18

18:                                               ; preds = %.lr.ph35, %_ZN32pxrInternal_v0_24__pxrReserved__19HdDataSourceLocatorD2Ev.exit
  %.02234 = phi ptr [ %13, %.lr.ph35 ], [ %41, %_ZN32pxrInternal_v0_24__pxrReserved__19HdDataSourceLocatorD2Ev.exit ]
  %19 = invoke noundef nonnull align 8 dereferenceable(8) ptr @_ZNK32pxrInternal_v0_24__pxrReserved__19HdDataSourceLocator15GetFirstElementEv(ptr noundef nonnull align 8 dereferenceable(56) %.02234)
          to label %20 unwind label %.loopexit

20:                                               ; preds = %18
  invoke void @_ZN32pxrInternal_v0_24__pxrReserved__19HdDataSourceLocatorC1ERKNS_7TfTokenE(ptr noundef nonnull align 8 dereferenceable(56) %4, ptr noundef nonnull align 8 dereferenceable(8) %19)
          to label %21 unwind label %.loopexit

21:                                               ; preds = %20
  invoke void @_ZN32pxrInternal_v0_24__pxrReserved__22HdDataSourceLocatorSet6insertERKNS_19HdDataSourceLocatorE(ptr noundef nonnull align 8 dereferenceable(456) %3, ptr noundef nonnull align 8 dereferenceable(56) %4)
          to label %22 unwind label %42

22:                                               ; preds = %21
  %23 = load i32, ptr %16, align 4
  %24 = icmp ult i32 %23, 7
  %25 = load ptr, ptr %4, align 8
  %spec.select.i.i.i.i.i = select i1 %24, ptr %4, ptr %25
  %26 = load i32, ptr %17, align 8
  %27 = zext i32 %26 to i64
  %28 = getelementptr inbounds nuw %"class.pxrInternal_v0_24__pxrReserved__::TfToken", ptr %spec.select.i.i.i.i.i, i64 %27
  %.not7.i.i.i = icmp eq i32 %26, 0
  br i1 %.not7.i.i.i, label %_ZN32pxrInternal_v0_24__pxrReserved__13TfSmallVectorINS_7TfTokenELj6EE9_DestructEv.exit.i.i, label %.lr.ph.i.i.i

.lr.ph.i.i.i:                                     ; preds = %22, %_ZN32pxrInternal_v0_24__pxrReserved__7TfTokenD2Ev.exit.i.i.i
  %.08.i.i.i = phi ptr [ %36, %_ZN32pxrInternal_v0_24__pxrReserved__7TfTokenD2Ev.exit.i.i.i ], [ %spec.select.i.i.i.i.i, %22 ]
  %29 = load ptr, ptr %.08.i.i.i, align 8
  %30 = ptrtoint ptr %29 to i64
  %31 = and i64 %30, 7
  %.not.i.i.i.i.i = icmp eq i64 %31, 0
  br i1 %.not.i.i.i.i.i, label %_ZN32pxrInternal_v0_24__pxrReserved__7TfTokenD2Ev.exit.i.i.i, label %32

32:                                               ; preds = %.lr.ph.i.i.i
  %33 = and i64 %30, -8
  %34 = inttoptr i64 %33 to ptr
  %35 = atomicrmw sub ptr %34, i32 2 release, align 4
  br label %_ZN32pxrInternal_v0_24__pxrReserved__7TfTokenD2Ev.exit.i.i.i

_ZN32pxrInternal_v0_24__pxrReserved__7TfTokenD2Ev.exit.i.i.i: ; preds = %32, %.lr.ph.i.i.i
  %36 = getelementptr inbounds nuw i8, ptr %.08.i.i.i, i64 8
  %.not.i.i.i = icmp eq ptr %36, %28
  br i1 %.not.i.i.i, label %_ZN32pxrInternal_v0_24__pxrReserved__13TfSmallVectorINS_7TfTokenELj6EE9_DestructEv.exit.loopexit.i.i, label %.lr.ph.i.i.i, !llvm.loop !10

_ZN32pxrInternal_v0_24__pxrReserved__13TfSmallVectorINS_7TfTokenELj6EE9_DestructEv.exit.loopexit.i.i: ; preds = %_ZN32pxrInternal_v0_24__pxrReserved__7TfTokenD2Ev.exit.i.i.i
  %.pre.i.i = load i32, ptr %16, align 4
  br label %_ZN32pxrInternal_v0_24__pxrReserved__13TfSmallVectorINS_7TfTokenELj6EE9_DestructEv.exit.i.i

_ZN32pxrInternal_v0_24__pxrReserved__13TfSmallVectorINS_7TfTokenELj6EE9_DestructEv.exit.i.i: ; preds = %_ZN32pxrInternal_v0_24__pxrReserved__13TfSmallVectorINS_7TfTokenELj6EE9_DestructEv.exit.loopexit.i.i, %22
  %37 = phi i32 [ %.pre.i.i, %_ZN32pxrInternal_v0_24__pxrReserved__13TfSmallVectorINS_7TfTokenELj6EE9_DestructEv.exit.loopexit.i.i ], [ %23, %22 ]
  %38 = icmp ult i32 %37, 7
  br i1 %38, label %_ZN32pxrInternal_v0_24__pxrReserved__19HdDataSourceLocatorD2Ev.exit, label %39

39:                                               ; preds = %_ZN32pxrInternal_v0_24__pxrReserved__13TfSmallVectorINS_7TfTokenELj6EE9_DestructEv.exit.i.i
  %40 = load ptr, ptr %4, align 8
  call void @free(ptr noundef %40) #19
  br label %_ZN32pxrInternal_v0_24__pxrReserved__19HdDataSourceLocatorD2Ev.exit

_ZN32pxrInternal_v0_24__pxrReserved__19HdDataSourceLocatorD2Ev.exit: ; preds = %_ZN32pxrInternal_v0_24__pxrReserved__13TfSmallVectorINS_7TfTokenELj6EE9_DestructEv.exit.i.i, %39
  %41 = getelementptr inbounds nuw i8, ptr %.02234, i64 56
  %.not = icmp eq ptr %41, %15
  br i1 %.not, label %._crit_edge, label %18

.loopexit:                                        ; preds = %18, %20
  %lpad.loopexit = landingpad { ptr, i32 }
          cleanup
  br label %76

.loopexit.split-lp:                               ; preds = %10, %14, %44
  %lpad.loopexit.split-lp = landingpad { ptr, i32 }
          cleanup
  br label %76

42:                                               ; preds = %21
  %43 = landingpad { ptr, i32 }
          cleanup
  call void @_ZN32pxrInternal_v0_24__pxrReserved__19HdDataSourceLocatorD2Ev(ptr noundef nonnull align 8 dereferenceable(56) %4) #19
  br label %76

._crit_edge:                                      ; preds = %_ZN32pxrInternal_v0_24__pxrReserved__19HdDataSourceLocatorD2Ev.exit, %.preheader
  %.not.i.i = icmp eq ptr %1, %3
  br i1 %.not.i.i, label %_ZN32pxrInternal_v0_24__pxrReserved__22HdDataSourceLocatorSetaSEOS0_.exit, label %44

44:                                               ; preds = %._crit_edge
  invoke void @_ZN32pxrInternal_v0_24__pxrReserved__13TfSmallVectorINS_19HdDataSourceLocatorELj8EE4swapERS2_(ptr noundef nonnull align 8 dereferenceable(456) %1, ptr noundef nonnull align 8 dereferenceable(456) %3)
          to label %_ZN32pxrInternal_v0_24__pxrReserved__22HdDataSourceLocatorSetaSEOS0_.exit unwind label %.loopexit.split-lp

_ZN32pxrInternal_v0_24__pxrReserved__22HdDataSourceLocatorSetaSEOS0_.exit: ; preds = %._crit_edge, %44
  %45 = load i32, ptr %12, align 4
  %46 = icmp ult i32 %45, 9
  %47 = load ptr, ptr %3, align 8
  %spec.select.i.i.i.i.i25 = select i1 %46, ptr %3, ptr %47
  %48 = load i32, ptr %11, align 8
  %49 = zext i32 %48 to i64
  %50 = getelementptr inbounds nuw %"class.pxrInternal_v0_24__pxrReserved__::HdDataSourceLocator", ptr %spec.select.i.i.i.i.i25, i64 %49
  %.not7.i.i.i26 = icmp eq i32 %48, 0
  br i1 %.not7.i.i.i26, label %_ZN32pxrInternal_v0_24__pxrReserved__13TfSmallVectorINS_19HdDataSourceLocatorELj8EE9_DestructEv.exit.i.i, label %.lr.ph.i.i.i27

.lr.ph.i.i.i27:                                   ; preds = %_ZN32pxrInternal_v0_24__pxrReserved__22HdDataSourceLocatorSetaSEOS0_.exit, %_ZN32pxrInternal_v0_24__pxrReserved__19HdDataSourceLocatorD2Ev.exit.i.i.i
  %.08.i.i.i28 = phi ptr [ %71, %_ZN32pxrInternal_v0_24__pxrReserved__19HdDataSourceLocatorD2Ev.exit.i.i.i ], [ %spec.select.i.i.i.i.i25, %_ZN32pxrInternal_v0_24__pxrReserved__22HdDataSourceLocatorSetaSEOS0_.exit ]
  %51 = getelementptr inbounds nuw i8, ptr %.08.i.i.i28, i64 52
  %52 = load i32, ptr %51, align 4
  %53 = icmp ult i32 %52, 7
  %54 = load ptr, ptr %.08.i.i.i28, align 8
  %spec.select.i.i.i.i.i.i.i.i = select i1 %53, ptr %.08.i.i.i28, ptr %54
  %55 = getelementptr inbounds nuw i8, ptr %.08.i.i.i28, i64 48
  %56 = load i32, ptr %55, align 8
  %57 = zext i32 %56 to i64
  %58 = getelementptr inbounds nuw %"class.pxrInternal_v0_24__pxrReserved__::TfToken", ptr %spec.select.i.i.i.i.i.i.i.i, i64 %57
  %.not7.i.i.i.i.i.i = icmp eq i32 %56, 0
  br i1 %.not7.i.i.i.i.i.i, label %_ZN32pxrInternal_v0_24__pxrReserved__13TfSmallVectorINS_7TfTokenELj6EE9_DestructEv.exit.i.i.i.i.i, label %.lr.ph.i.i.i.i.i.i

.lr.ph.i.i.i.i.i.i:                               ; preds = %.lr.ph.i.i.i27, %_ZN32pxrInternal_v0_24__pxrReserved__7TfTokenD2Ev.exit.i.i.i.i.i.i
  %.08.i.i.i.i.i.i = phi ptr [ %66, %_ZN32pxrInternal_v0_24__pxrReserved__7TfTokenD2Ev.exit.i.i.i.i.i.i ], [ %spec.select.i.i.i.i.i.i.i.i, %.lr.ph.i.i.i27 ]
  %59 = load ptr, ptr %.08.i.i.i.i.i.i, align 8
  %60 = ptrtoint ptr %59 to i64
  %61 = and i64 %60, 7
  %.not.i.i.i.i.i.i.i.i = icmp eq i64 %61, 0
  br i1 %.not.i.i.i.i.i.i.i.i, label %_ZN32pxrInternal_v0_24__pxrReserved__7TfTokenD2Ev.exit.i.i.i.i.i.i, label %62

62:                                               ; preds = %.lr.ph.i.i.i.i.i.i
  %63 = and i64 %60, -8
  %64 = inttoptr i64 %63 to ptr
  %65 = atomicrmw sub ptr %64, i32 2 release, align 4
  br label %_ZN32pxrInternal_v0_24__pxrReserved__7TfTokenD2Ev.exit.i.i.i.i.i.i

_ZN32pxrInternal_v0_24__pxrReserved__7TfTokenD2Ev.exit.i.i.i.i.i.i: ; preds = %62, %.lr.ph.i.i.i.i.i.i
  %66 = getelementptr inbounds nuw i8, ptr %.08.i.i.i.i.i.i, i64 8
  %.not.i.i.i.i.i.i = icmp eq ptr %66, %58
  br i1 %.not.i.i.i.i.i.i, label %_ZN32pxrInternal_v0_24__pxrReserved__13TfSmallVectorINS_7TfTokenELj6EE9_DestructEv.exit.loopexit.i.i.i.i.i, label %.lr.ph.i.i.i.i.i.i, !llvm.loop !10

_ZN32pxrInternal_v0_24__pxrReserved__13TfSmallVectorINS_7TfTokenELj6EE9_DestructEv.exit.loopexit.i.i.i.i.i: ; preds = %_ZN32pxrInternal_v0_24__pxrReserved__7TfTokenD2Ev.exit.i.i.i.i.i.i
  %.pre.i.i.i.i.i = load i32, ptr %51, align 4
  br label %_ZN32pxrInternal_v0_24__pxrReserved__13TfSmallVectorINS_7TfTokenELj6EE9_DestructEv.exit.i.i.i.i.i

_ZN32pxrInternal_v0_24__pxrReserved__13TfSmallVectorINS_7TfTokenELj6EE9_DestructEv.exit.i.i.i.i.i: ; preds = %_ZN32pxrInternal_v0_24__pxrReserved__13TfSmallVectorINS_7TfTokenELj6EE9_DestructEv.exit.loopexit.i.i.i.i.i, %.lr.ph.i.i.i27
  %67 = phi i32 [ %.pre.i.i.i.i.i, %_ZN32pxrInternal_v0_24__pxrReserved__13TfSmallVectorINS_7TfTokenELj6EE9_DestructEv.exit.loopexit.i.i.i.i.i ], [ %52, %.lr.ph.i.i.i27 ]
  %68 = icmp ult i32 %67, 7
  br i1 %68, label %_ZN32pxrInternal_v0_24__pxrReserved__19HdDataSourceLocatorD2Ev.exit.i.i.i, label %69

69:                                               ; preds = %_ZN32pxrInternal_v0_24__pxrReserved__13TfSmallVectorINS_7TfTokenELj6EE9_DestructEv.exit.i.i.i.i.i
  %70 = load ptr, ptr %.08.i.i.i28, align 8
  call void @free(ptr noundef %70) #19
  br label %_ZN32pxrInternal_v0_24__pxrReserved__19HdDataSourceLocatorD2Ev.exit.i.i.i

_ZN32pxrInternal_v0_24__pxrReserved__19HdDataSourceLocatorD2Ev.exit.i.i.i: ; preds = %69, %_ZN32pxrInternal_v0_24__pxrReserved__13TfSmallVectorINS_7TfTokenELj6EE9_DestructEv.exit.i.i.i.i.i
  %71 = getelementptr inbounds nuw i8, ptr %.08.i.i.i28, i64 56
  %.not.i.i.i29 = icmp eq ptr %71, %50
  br i1 %.not.i.i.i29, label %_ZN32pxrInternal_v0_24__pxrReserved__13TfSmallVectorINS_19HdDataSourceLocatorELj8EE9_DestructEv.exit.loopexit.i.i, label %.lr.ph.i.i.i27, !llvm.loop !12

_ZN32pxrInternal_v0_24__pxrReserved__13TfSmallVectorINS_19HdDataSourceLocatorELj8EE9_DestructEv.exit.loopexit.i.i: ; preds = %_ZN32pxrInternal_v0_24__pxrReserved__19HdDataSourceLocatorD2Ev.exit.i.i.i
  %.pre.i.i30 = load i32, ptr %12, align 4
  br label %_ZN32pxrInternal_v0_24__pxrReserved__13TfSmallVectorINS_19HdDataSourceLocatorELj8EE9_DestructEv.exit.i.i

_ZN32pxrInternal_v0_24__pxrReserved__13TfSmallVectorINS_19HdDataSourceLocatorELj8EE9_DestructEv.exit.i.i: ; preds = %_ZN32pxrInternal_v0_24__pxrReserved__13TfSmallVectorINS_19HdDataSourceLocatorELj8EE9_DestructEv.exit.loopexit.i.i, %_ZN32pxrInternal_v0_24__pxrReserved__22HdDataSourceLocatorSetaSEOS0_.exit
  %72 = phi i32 [ %.pre.i.i30, %_ZN32pxrInternal_v0_24__pxrReserved__13TfSmallVectorINS_19HdDataSourceLocatorELj8EE9_DestructEv.exit.loopexit.i.i ], [ %45, %_ZN32pxrInternal_v0_24__pxrReserved__22HdDataSourceLocatorSetaSEOS0_.exit ]
  %73 = icmp ult i32 %72, 9
  br i1 %73, label %.critedge, label %74

74:                                               ; preds = %_ZN32pxrInternal_v0_24__pxrReserved__13TfSmallVectorINS_19HdDataSourceLocatorELj8EE9_DestructEv.exit.i.i
  %75 = load ptr, ptr %3, align 8
  call void @free(ptr noundef %75) #19
  br label %.critedge

.critedge:                                        ; preds = %7, %2, %74, %_ZN32pxrInternal_v0_24__pxrReserved__13TfSmallVectorINS_19HdDataSourceLocatorELj8EE9_DestructEv.exit.i.i
  ret void

76:                                               ; preds = %.loopexit, %.loopexit.split-lp, %42
  %.pn = phi { ptr, i32 } [ %43, %42 ], [ %lpad.loopexit, %.loopexit ], [ %lpad.loopexit.split-lp, %.loopexit.split-lp ]
  call void @_ZN32pxrInternal_v0_24__pxrReserved__22HdDataSourceLocatorSetD2Ev(ptr noundef nonnull align 8 dereferenceable(456) %3) #19
  resume { ptr, i32 } %.pn
}